target datalayout = "e-m:e-p270:32:32-p271:32:32-p272:64:64-i64:64-i128:128-f80:128-n8:16:32:64-S128"
target triple = "x86_64-pc-linux-gnu"

%struct.tsi_peer = type { ptr, i64 }
%struct.tsi_peer_property = type { ptr, %struct.anon }
%struct.anon = type { ptr, i64 }

@.str.24 = private unnamed_addr constant [17 x i8] c"certificate_type\00", align 1
@.str.25 = private unnamed_addr constant [5 x i8] c"FAKE\00", align 1
@.str.26 = private unnamed_addr constant [15 x i8] c"security_level\00", align 1

; Function Attrs: mustprogress uwtable
define internal noundef i32 @_ZL35fake_handshaker_result_extract_peerPK21tsi_handshaker_resultP8tsi_peer(ptr noundef %0, ptr noundef %1) #4 {
  %3 = alloca i32, align 4
  %4 = alloca ptr, align 8
  %5 = alloca ptr, align 8
  %6 = alloca i32, align 4
  %7 = alloca i32, align 4
  store ptr %0, ptr %4, align 8, !tbaa !102
  store ptr %1, ptr %5, align 8, !tbaa !163
  call void @llvm.lifetime.start.p0(i64 4, ptr %6) #3
  %8 = load ptr, ptr %5, align 8, !tbaa !163
  %9 = call noundef i32 @_Z18tsi_construct_peermP8tsi_peer(i64 noundef 2, ptr noundef %8)
  store i32 %9, ptr %6, align 4, !tbaa !100
  %10 = load i32, ptr %6, align 4, !tbaa !100
  %11 = icmp ne i32 %10, 0
  br i1 %11, label %12, label %14

12:                                               ; preds = %2
  %13 = load i32, ptr %6, align 4, !tbaa !100
  store i32 %13, ptr %3, align 4
  store i32 1, ptr %7, align 4
  br label %37

14:                                               ; preds = %2
  %15 = load ptr, ptr %5, align 8, !tbaa !163
  %16 = getelementptr inbounds nuw %struct.tsi_peer, ptr %15, i32 0, i32 0
  %17 = load ptr, ptr %16, align 8, !tbaa !165
  %18 = getelementptr inbounds %struct.tsi_peer_property, ptr %17, i64 0
  %19 = call noundef i32 @_Z47tsi_construct_string_peer_property_from_cstringPKcS0_P17tsi_peer_property(ptr noundef @.str.24, ptr noundef @.str.25, ptr noundef %18)
  store i32 %19, ptr %6, align 4, !tbaa !100
  %20 = load i32, ptr %6, align 4, !tbaa !100
  %21 = icmp ne i32 %20, 0
  br i1 %21, label %22, label %24

22:                                               ; preds = %14
  %23 = load ptr, ptr %5, align 8, !tbaa !163
  call void @_Z17tsi_peer_destructP8tsi_peer(ptr noundef %23)
  br label %24

24:                                               ; preds = %22, %14
  %25 = call noundef ptr @_Z28tsi_security_level_to_string18tsi_security_level(i32 noundef 0)
  %26 = load ptr, ptr %5, align 8, !tbaa !163
  %27 = getelementptr inbounds nuw %struct.tsi_peer, ptr %26, i32 0, i32 0
  %28 = load ptr, ptr %27, align 8, !tbaa !165
  %29 = getelementptr inbounds %struct.tsi_peer_property, ptr %28, i64 1
  %30 = call noundef i32 @_Z47tsi_construct_string_peer_property_from_cstringPKcS0_P17tsi_peer_property(ptr noundef @.str.26, ptr noundef %25, ptr noundef %29)
  store i32 %30, ptr %6, align 4, !tbaa !100
  %31 = load i32, ptr %6, align 4, !tbaa !100
  %32 = icmp ne i32 %31, 0
  br i1 %32, label %33, label %35

33:                                               ; preds = %24
  %34 = load ptr, ptr %5, align 8, !tbaa !163
  call void @_Z17tsi_peer_destructP8tsi_peer(ptr noundef %34)
  br label %35

35:                                               ; preds = %33, %24
  %36 = load i32, ptr %6, align 4, !tbaa !100
  store i32 %36, ptr %3, align 4
  store i32 1, ptr %7, align 4
  br label %37

37:                                               ; preds = %35, %12
  call void @llvm.lifetime.end.p0(i64 4, ptr %6) #3
  %38 = load i32, ptr %3, align 4
  ret i32 %38
}