; Function Attrs: mustprogress uwtable
define internal noundef i32 @_ZL35fake_handshaker_result_extract_peerPK21tsi_handshaker_resultP8tsi_peer(ptr readnone captures(none) %0, ptr noundef %1) #3 {
  %3 = tail call noundef i32 @_Z18tsi_construct_peermP8tsi_peer(i64 noundef 2, ptr noundef %1)
  %.not = icmp eq i32 %3, 0
  br i1 %.not, label %4, label %14

4:                                                ; preds = %2
  %5 = load ptr, ptr %1, align 8, !tbaa !76
  %6 = tail call noundef i32 @_Z47tsi_construct_string_peer_property_from_cstringPKcS0_P17tsi_peer_property(ptr noundef nonnull @.str.24, ptr noundef nonnull @.str.25, ptr noundef %5)
  %.not11 = icmp eq i32 %6, 0
  br i1 %.not11, label %8, label %7

7:                                                ; preds = %4
  tail call void @_Z17tsi_peer_destructP8tsi_peer(ptr noundef nonnull %1)
  br label %8

8:                                                ; preds = %7, %4
  %9 = tail call noundef ptr @_Z28tsi_security_level_to_string18tsi_security_level(i32 noundef 0)
  %10 = load ptr, ptr %1, align 8, !tbaa !76
  %11 = getelementptr inbounds nuw i8, ptr %10, i64 24
  %12 = tail call noundef i32 @_Z47tsi_construct_string_peer_property_from_cstringPKcS0_P17tsi_peer_property(ptr noundef nonnull @.str.26, ptr noundef %9, ptr noundef nonnull %11)
  %.not12 = icmp eq i32 %12, 0
  br i1 %.not12, label %14, label %13

13:                                               ; preds = %8
  tail call void @_Z17tsi_peer_destructP8tsi_peer(ptr noundef nonnull %1)
  br label %14

14:                                               ; preds = %8, %13, %2
  %.0 = phi i32 [ %3, %2 ], [ %12, %13 ], [ 0, %8 ]
  ret i32 %.0
}